; Function Attrs: nofree norecurse nosync nounwind memory(read, inaccessiblemem: none) uwtable
define range(i32 0, 2) i32 @Ssw_SemCheckTargets(ptr noundef readonly captures(none) %0) local_unnamed_addr #6 {
  %2 = getelementptr inbounds nuw i8, ptr %0, i64 24
  %3 = load ptr, ptr %2, align 8, !tbaa !40
  %4 = getelementptr i8, ptr %3, i64 4
  %.val8 = load i32, ptr %4, align 4, !tbaa !36
  %5 = icmp sgt i32 %.val8, 0
  br i1 %5, label %.lr.ph, label %.critedge

.lr.ph:                                           ; preds = %1
  %6 = getelementptr inbounds nuw i8, ptr %0, i64 16
  %7 = load ptr, ptr %6, align 8, !tbaa !27
  %8 = getelementptr inbounds nuw i8, ptr %7, i64 16
  %9 = load ptr, ptr %8, align 8, !tbaa !13
  %10 = getelementptr i8, ptr %9, i64 256
  %.val.i = load ptr, ptr %10, align 8, !tbaa !57
  %.not.i.i = icmp eq ptr %.val.i, null
  %11 = getelementptr i8, ptr %9, i64 48
  %.val3.i = load ptr, ptr %11, align 8, !tbaa !58
  br i1 %.not.i.i, label %.lr.ph.split.us, label %.lr.ph.split

.lr.ph.split.us:                                  ; preds = %.lr.ph
  %.not.us = icmp ne ptr %.val3.i, null
  %spec.select = zext i1 %.not.us to i32
  br label %.critedge

.lr.ph.split:                                     ; preds = %.lr.ph
  %12 = getelementptr i8, ptr %3, i64 8
  %.val = load ptr, ptr %12, align 8, !tbaa !39
  %wide.trip.count = zext nneg i32 %.val8 to i64
  br label %Ssw_ObjIsConst1Cand.exit

13:                                               ; preds = %Ssw_ObjIsConst1Cand.exit
  %indvars.iv.next = add nuw nsw i64 %indvars.iv, 1
  %exitcond.not = icmp eq i64 %indvars.iv.next, %wide.trip.count
  br i1 %exitcond.not, label %.critedge, label %Ssw_ObjIsConst1Cand.exit, !llvm.loop !59

Ssw_ObjIsConst1Cand.exit:                         ; preds = %.lr.ph.split, %13
  %indvars.iv = phi i64 [ 0, %.lr.ph.split ], [ %indvars.iv.next, %13 ]
  %14 = getelementptr inbounds nuw ptr, ptr %.val, i64 %indvars.iv
  %15 = load ptr, ptr %14, align 8, !tbaa !42
  %16 = getelementptr inbounds nuw i8, ptr %15, i64 36
  %17 = load i32, ptr %16, align 4, !tbaa !60
  %18 = sext i32 %17 to i64
  %19 = getelementptr inbounds ptr, ptr %.val.i, i64 %18
  %20 = load ptr, ptr %19, align 8, !tbaa !61
  %.not = icmp eq ptr %20, %.val3.i
  br i1 %.not, label %13, label %.critedge

.critedge:                                        ; preds = %Ssw_ObjIsConst1Cand.exit, %13, %.lr.ph.split.us, %1
  %.07 = phi i32 [ 0, %1 ], [ %spec.select, %.lr.ph.split.us ], [ 0, %13 ], [ 1, %Ssw_ObjIsConst1Cand.exit ]
  ret i32 %.07
}